target datalayout = "e-m:e-p270:32:32-p271:32:32-p272:64:64-i64:64-i128:128-f80:128-n8:16:32:64-S128"
target triple = "x86_64-pc-linux-gnu"

%struct.ImVec2 = type { float, float }
%struct.ImFontConfig = type { ptr, i32, i8, i8, i8, i32, i32, i32, float, %struct.ImVec2, ptr, float, float, float, i32, float, float, i16, [40 x i8], ptr }

@.str = private unnamed_addr constant [22 x i8] c"ProggyClean.ttf, %dpx\00", align 1
@_ZZN11ImFontAtlas21GetGlyphRangesDefaultEvE6ranges = internal constant [3 x i16] [i16 32, i16 255, i16 0], align 2
@_ZN12ImFontConfigC1Ev = unnamed_addr alias void (ptr), ptr @_ZN12ImFontConfigC2Ev

; Function Attrs: mustprogress nounwind uwtable
define noundef ptr @_ZN11ImFontAtlas21GetGlyphRangesDefaultEv(ptr noundef nonnull align 8 dereferenceable(676) %0) #3 align 2 {
  %2 = alloca ptr, align 8
  store ptr %0, ptr %2, align 8, !tbaa !298
  ret ptr @_ZZN11ImFontAtlas21GetGlyphRangesDefaultEvE6ranges
}

; Function Attrs: mustprogress nounwind uwtable
define internal noundef ptr @_ZL31GetDefaultCompressedFontDataTTFPi(ptr noundef %0) #3 {
  %2 = alloca ptr, align 8
  store ptr %0, ptr %2, align 8, !tbaa !244
  %3 = load ptr, ptr %2, align 8, !tbaa !244
  store i32 9583, ptr %3, align 4, !tbaa !27
  ret ptr @_ZL32proggy_clean_ttf_compressed_data
}

; Function Attrs: mustprogress uwtable
define noundef ptr @_ZN11ImFontAtlas14AddFontDefaultEPK12ImFontConfig(ptr noundef nonnull align 8 dereferenceable(676) %0, ptr noundef %1) #6 align 2 {
  %3 = alloca ptr, align 8
  %4 = alloca ptr, align 8
  %5 = alloca %struct.ImFontConfig, align 8
  %6 = alloca i32, align 4
  %7 = alloca ptr, align 8
  %8 = alloca ptr, align 8
  %9 = alloca ptr, align 8
  store ptr %0, ptr %3, align 8, !tbaa !298
  store ptr %1, ptr %4, align 8, !tbaa !289
  %10 = load ptr, ptr %3, align 8
  call void @llvm.lifetime.start.p0(i64 128, ptr %5) #17
  %11 = load ptr, ptr %4, align 8, !tbaa !289
  %12 = icmp ne ptr %11, null
  br i1 %12, label %13, label %15

13:                                               ; preds = %2
  %14 = load ptr, ptr %4, align 8, !tbaa !289
  call void @llvm.memcpy.p0.p0.i64(ptr align 8 %5, ptr align 8 %14, i64 128, i1 false), !tbaa.struct !348
  br label %16

15:                                               ; preds = %2
  call void @_ZN12ImFontConfigC1Ev(ptr noundef nonnull align 8 dereferenceable(128) %5)
  br label %16

16:                                               ; preds = %15, %13
  %17 = load ptr, ptr %4, align 8, !tbaa !289
  %18 = icmp ne ptr %17, null
  br i1 %18, label %23, label %19

19:                                               ; preds = %16
  %20 = getelementptr inbounds nuw %struct.ImFontConfig, ptr %5, i32 0, i32 7
  store i32 1, ptr %20, align 8, !tbaa !293
  %21 = getelementptr inbounds nuw %struct.ImFontConfig, ptr %5, i32 0, i32 6
  store i32 1, ptr %21, align 4, !tbaa !292
  %22 = getelementptr inbounds nuw %struct.ImFontConfig, ptr %5, i32 0, i32 4
  store i8 1, ptr %22, align 2, !tbaa !349
  br label %23

23:                                               ; preds = %19, %16
  %24 = getelementptr inbounds nuw %struct.ImFontConfig, ptr %5, i32 0, i32 8
  %25 = load float, ptr %24, align 4, !tbaa !347
  %26 = fcmp ole float %25, 0.000000e+00
  br i1 %26, label %27, label %29

27:                                               ; preds = %23
  %28 = getelementptr inbounds nuw %struct.ImFontConfig, ptr %5, i32 0, i32 8
  store float 1.300000e+01, ptr %28, align 4, !tbaa !347
  br label %29

29:                                               ; preds = %27, %23
  %30 = getelementptr inbounds nuw %struct.ImFontConfig, ptr %5, i32 0, i32 18
  %31 = getelementptr inbounds [40 x i8], ptr %30, i64 0, i64 0
  %32 = load i8, ptr %31, align 2, !tbaa !41
  %33 = sext i8 %32 to i32
  %34 = icmp eq i32 %33, 0
  br i1 %34, label %35, label %42

35:                                               ; preds = %29
  %36 = getelementptr inbounds nuw %struct.ImFontConfig, ptr %5, i32 0, i32 18
  %37 = getelementptr inbounds [40 x i8], ptr %36, i64 0, i64 0
  %38 = getelementptr inbounds nuw %struct.ImFontConfig, ptr %5, i32 0, i32 8
  %39 = load float, ptr %38, align 4, !tbaa !347
  %40 = fptosi float %39 to i32
  %41 = call noundef i32 (ptr, i64, ptr, ...) @_Z14ImFormatStringPcmPKcz(ptr noundef %37, i64 noundef 40, ptr noundef @.str, i32 noundef %40)
  br label %42

42:                                               ; preds = %35, %29
  %43 = getelementptr inbounds nuw %struct.ImFontConfig, ptr %5, i32 0, i32 17
  store i16 133, ptr %43, align 8, !tbaa !297
  %44 = getelementptr inbounds nuw %struct.ImFontConfig, ptr %5, i32 0, i32 8
  %45 = load float, ptr %44, align 4, !tbaa !347
  %46 = fdiv float %45, 1.300000e+01
  %47 = fptosi float %46 to i32
  %48 = sitofp i32 %47 to float
  %49 = fmul float 1.000000e+00, %48
  %50 = getelementptr inbounds nuw %struct.ImFontConfig, ptr %5, i32 0, i32 9
  %51 = getelementptr inbounds nuw %struct.ImVec2, ptr %50, i32 0, i32 1
  store float %49, ptr %51, align 4, !tbaa !350
  call void @llvm.lifetime.start.p0(i64 4, ptr %6) #17
  store i32 0, ptr %6, align 4, !tbaa !27
  call void @llvm.lifetime.start.p0(i64 8, ptr %7) #17
  %52 = call noundef ptr @_ZL31GetDefaultCompressedFontDataTTFPi(ptr noundef %6)
  store ptr %52, ptr %7, align 8, !tbaa !186
  call void @llvm.lifetime.start.p0(i64 8, ptr %8) #17
  %53 = getelementptr inbounds nuw %struct.ImFontConfig, ptr %5, i32 0, i32 10
  %54 = load ptr, ptr %53, align 8, !tbaa !351
  %55 = icmp ne ptr %54, null
  br i1 %55, label %56, label %59

56:                                               ; preds = %42
  %57 = getelementptr inbounds nuw %struct.ImFontConfig, ptr %5, i32 0, i32 10
  %58 = load ptr, ptr %57, align 8, !tbaa !351
  br label %61

59:                                               ; preds = %42
  %60 = call noundef ptr @_ZN11ImFontAtlas21GetGlyphRangesDefaultEv(ptr noundef nonnull align 8 dereferenceable(676) %10)
  br label %61

61:                                               ; preds = %59, %56
  %62 = phi ptr [ %58, %56 ], [ %60, %59 ]
  store ptr %62, ptr %8, align 8, !tbaa !121
  call void @llvm.lifetime.start.p0(i64 8, ptr %9) #17
  %63 = load ptr, ptr %7, align 8, !tbaa !186
  %64 = load i32, ptr %6, align 4, !tbaa !27
  %65 = getelementptr inbounds nuw %struct.ImFontConfig, ptr %5, i32 0, i32 8
  %66 = load float, ptr %65, align 4, !tbaa !347
  %67 = load ptr, ptr %8, align 8, !tbaa !121
  %68 = call noundef ptr @_ZN11ImFontAtlas30AddFontFromMemoryCompressedTTFEPKvifPK12ImFontConfigPKt(ptr noundef nonnull align 8 dereferenceable(676) %10, ptr noundef %63, i32 noundef %64, float noundef %66, ptr noundef %5, ptr noundef %67)
  store ptr %68, ptr %9, align 8, !tbaa !185
  %69 = load ptr, ptr %9, align 8, !tbaa !185
  call void @llvm.lifetime.end.p0(i64 8, ptr %9) #17
  call void @llvm.lifetime.end.p0(i64 8, ptr %8) #17
  call void @llvm.lifetime.end.p0(i64 8, ptr %7) #17
  call void @llvm.lifetime.end.p0(i64 4, ptr %6) #17
  call void @llvm.lifetime.end.p0(i64 128, ptr %5) #17
  ret ptr %69
}