; Function Attrs: mustprogress uwtable
define noundef ptr @_ZN11ImFontAtlas14AddFontDefaultEPK12ImFontConfig(ptr noundef nonnull align 8 captures(none) dereferenceable(676) %0, ptr noundef readonly %1) local_unnamed_addr #12 align 2 {
  %3 = alloca %struct.ImFontConfig, align 8
  call void @llvm.lifetime.start.p0(i64 128, ptr nonnull %3) #42
  %.not = icmp eq ptr %1, null
  br i1 %.not, label %5, label %4

4:                                                ; preds = %2
  call void @llvm.memcpy.p0.p0.i64(ptr noundef nonnull align 8 dereferenceable(128) %3, ptr noundef nonnull align 8 dereferenceable(128) %1, i64 128, i1 false), !tbaa.struct !289
  br label %9

5:                                                ; preds = %2
  call void @_ZN12ImFontConfigC1Ev(ptr noundef nonnull align 8 dereferenceable(128) %3)
  %6 = getelementptr inbounds nuw i8, ptr %3, i64 24
  store i32 1, ptr %6, align 8, !tbaa !237
  %7 = getelementptr inbounds nuw i8, ptr %3, i64 20
  store i32 1, ptr %7, align 4, !tbaa !273
  %8 = getelementptr inbounds nuw i8, ptr %3, i64 14
  store i8 1, ptr %8, align 2, !tbaa !274
  br label %9

9:                                                ; preds = %4, %5
  %10 = getelementptr inbounds nuw i8, ptr %3, i64 28
  %11 = load float, ptr %10, align 4, !tbaa !275
  %12 = fcmp ugt float %11, 0.000000e+00
  br i1 %12, label %14, label %13

13:                                               ; preds = %9
  store float 1.300000e+01, ptr %10, align 4, !tbaa !275
  br label %14

14:                                               ; preds = %13, %9
  %15 = phi float [ 1.300000e+01, %13 ], [ %11, %9 ]
  %16 = getelementptr inbounds nuw i8, ptr %3, i64 74
  %17 = load i8, ptr %16, align 2, !tbaa !23
  %18 = icmp eq i8 %17, 0
  br i1 %18, label %19, label %22

19:                                               ; preds = %14
  %20 = fptosi float %15 to i32
  %21 = call noundef i32 (ptr, i64, ptr, ...) @_Z14ImFormatStringPcmPKcz(ptr noundef nonnull %16, i64 noundef 40, ptr noundef nonnull @.str, i32 noundef %20)
  %.pre = load float, ptr %10, align 4, !tbaa !275
  br label %22

22:                                               ; preds = %19, %14
  %23 = phi float [ %.pre, %19 ], [ %15, %14 ]
  %24 = getelementptr inbounds nuw i8, ptr %3, i64 72
  store i16 133, ptr %24, align 8, !tbaa !276
  %25 = fdiv float %23, 1.300000e+01
  %26 = fptosi float %25 to i32
  %27 = sitofp i32 %26 to float
  %28 = getelementptr inbounds nuw i8, ptr %3, i64 36
  store float %27, ptr %28, align 4, !tbaa !277
  %29 = getelementptr inbounds nuw i8, ptr %3, i64 40
  %30 = load ptr, ptr %29, align 8, !tbaa !278
  %.not8 = icmp eq ptr %30, null
  %spec.select = select i1 %.not8, ptr @_ZZN11ImFontAtlas21GetGlyphRangesDefaultEvE6ranges, ptr %30
  %31 = call noundef ptr @_ZN11ImFontAtlas30AddFontFromMemoryCompressedTTFEPKvifPK12ImFontConfigPKt(ptr noundef nonnull align 8 dereferenceable(676) %0, ptr noundef nonnull @_ZL32proggy_clean_ttf_compressed_data, i32 poison, float noundef %23, ptr noundef nonnull %3, ptr noundef nonnull %spec.select)
  call void @llvm.lifetime.end.p0(i64 128, ptr nonnull %3) #42
  ret ptr %31
}